; Function Attrs: mustprogress nofree norecurse nosync nounwind sspstrong willreturn memory(write, argmem: readwrite, inaccessiblemem: none) uwtable
define noundef ptr @cJSON_DetachItemViaPointer(ptr noundef %0, ptr noundef %1) local_unnamed_addr #20 {
  %3 = icmp eq ptr %0, null
  %4 = icmp eq ptr %1, null
  %or.cond = or i1 %3, %4
  br i1 %or.cond, label %22, label %5

5:                                                ; preds = %2
  %6 = getelementptr inbounds nuw i8, ptr %0, i64 16
  %7 = load ptr, ptr %6, align 8, !tbaa !25
  %.not = icmp eq ptr %1, %7
  br i1 %.not, label %.thread, label %8

8:                                                ; preds = %5
  %9 = getelementptr inbounds nuw i8, ptr %1, i64 8
  %10 = load ptr, ptr %9, align 8, !tbaa !40
  %11 = icmp eq ptr %10, null
  br i1 %11, label %22, label %.thread.thread

.thread:                                          ; preds = %5
  %12 = load ptr, ptr %1, align 8, !tbaa !24
  %.not29 = icmp eq ptr %12, null
  br i1 %.not29, label %18, label %.thread30

.thread.thread:                                   ; preds = %8
  %13 = load ptr, ptr %1, align 8, !tbaa !24
  store ptr %13, ptr %10, align 8, !tbaa !24
  %.not2932 = icmp eq ptr %13, null
  br i1 %.not2932, label %19, label %.thread31

.thread30:                                        ; preds = %.thread
  %14 = getelementptr inbounds nuw i8, ptr %1, i64 8
  %15 = load ptr, ptr %14, align 8, !tbaa !40
  %16 = getelementptr inbounds nuw i8, ptr %12, i64 8
  store ptr %15, ptr %16, align 8, !tbaa !40
  br label %18

.thread31:                                        ; preds = %.thread.thread
  %17 = getelementptr inbounds nuw i8, ptr %13, i64 8
  store ptr %10, ptr %17, align 8, !tbaa !40
  br label %21

18:                                               ; preds = %.thread30, %.thread
  store ptr %12, ptr %6, align 8, !tbaa !25
  br label %21

19:                                               ; preds = %.thread.thread
  %20 = getelementptr inbounds nuw i8, ptr %7, i64 8
  store ptr %10, ptr %20, align 8, !tbaa !40
  br label %21

21:                                               ; preds = %.thread31, %19, %18
  tail call void @llvm.memset.p0.i64(ptr noundef nonnull align 8 dereferenceable(16) %1, i8 0, i64 16, i1 false)
  br label %22

22:                                               ; preds = %2, %8, %21
  %.0 = phi ptr [ %1, %21 ], [ null, %8 ], [ null, %2 ]
  ret ptr %.0
}